; Function Attrs: nounwind sspstrong uwtable
define dso_local void @bdrv_dirty_bitmap_truncate(ptr noundef %bs, i64 noundef %bytes) local_unnamed_addr #0 {
entry:
  %0 = load atomic i64, ptr @qemu_mutex_lock_func monotonic, align 8
  %1 = inttoptr i64 %0 to ptr
  %dirty_bitmap_mutex.i = getelementptr inbounds nuw i8, ptr %bs, i64 16904
  tail call void %1(ptr noundef nonnull %dirty_bitmap_mutex.i, ptr noundef nonnull @.str.1, i32 noundef 66) #14
  %dirty_bitmaps = getelementptr inbounds nuw i8, ptr %bs, i64 16952
  %bitmap.012 = load ptr, ptr %dirty_bitmaps, align 8
  %tobool.not13 = icmp eq ptr %bitmap.012, null
  br i1 %tobool.not13, label %for.end, label %for.body

for.body:                                         ; preds = %entry, %if.end8
  %bitmap.014 = phi ptr [ %bitmap.0, %if.end8 ], [ %bitmap.012, %entry ]
  %2 = getelementptr i8, ptr %bitmap.014, i64 16
  %bitmap.0.val = load i8, ptr %2, align 8
  %tobool.i = trunc i8 %bitmap.0.val to i1
  br i1 %tobool.i, label %if.else, label %if.end

if.else:                                          ; preds = %for.body
  tail call void @__assert_fail(ptr noundef nonnull @.str.14, ptr noundef nonnull @.str.1, i32 noundef 347, ptr noundef nonnull @__PRETTY_FUNCTION__.bdrv_dirty_bitmap_truncate) #15
  unreachable

if.end:                                           ; preds = %for.body
  %successor.i = getelementptr inbounds nuw i8, ptr %bitmap.014, i64 24
  %3 = load ptr, ptr %successor.i, align 8
  %tobool.i10.not = icmp eq ptr %3, null
  br i1 %tobool.i10.not, label %if.end4, label %if.else3

if.else3:                                         ; preds = %if.end
  tail call void @__assert_fail(ptr noundef nonnull @.str.15, ptr noundef nonnull @.str.1, i32 noundef 348, ptr noundef nonnull @__PRETTY_FUNCTION__.bdrv_dirty_bitmap_truncate) #15
  unreachable

if.end4:                                          ; preds = %if.end
  %active_iterators = getelementptr inbounds nuw i8, ptr %bitmap.014, i64 52
  %4 = load i32, ptr %active_iterators, align 4
  %tobool5.not = icmp eq i32 %4, 0
  br i1 %tobool5.not, label %if.end8, label %if.else7

if.else7:                                         ; preds = %if.end4
  tail call void @__assert_fail(ptr noundef nonnull @.str.16, ptr noundef nonnull @.str.1, i32 noundef 349, ptr noundef nonnull @__PRETTY_FUNCTION__.bdrv_dirty_bitmap_truncate) #15
  unreachable

if.end8:                                          ; preds = %if.end4
  %bitmap9 = getelementptr inbounds nuw i8, ptr %bitmap.014, i64 8
  %5 = load ptr, ptr %bitmap9, align 8
  tail call void @hbitmap_truncate(ptr noundef %5, i64 noundef %bytes) #14
  %size = getelementptr inbounds nuw i8, ptr %bitmap.014, i64 40
  store i64 %bytes, ptr %size, align 8
  %list = getelementptr inbounds nuw i8, ptr %bitmap.014, i64 64
  %bitmap.0 = load ptr, ptr %list, align 8
  %tobool.not = icmp eq ptr %bitmap.0, null
  br i1 %tobool.not, label %for.end, label %for.body, !llvm.loop !7

for.end:                                          ; preds = %if.end8, %entry
  tail call void @qemu_mutex_unlock_impl(ptr noundef nonnull %dirty_bitmap_mutex.i, ptr noundef nonnull @.str.1, i32 noundef 71) #14
  ret void
}